; Function Attrs: mustprogress uwtable
define noundef i32 @_Z12tMPI_GathervPKviP14tmpi_datatype_PvPiS4_S2_iP10tmpi_comm_(ptr noundef %0, i32 noundef %1, ptr noundef %2, ptr noundef %3, ptr nocapture noundef readonly %4, ptr nocapture noundef readonly %5, ptr noundef %6, i32 noundef %7, ptr noundef %8) local_unnamed_addr #0 {
  %10 = alloca i32, align 4
  %11 = alloca i32, align 4
  store i32 0, ptr %11, align 4
  %12 = tail call noundef ptr @_Z23tMPI_Thread_getspecific17tMPI_Thread_key_t(ptr noundef nonnull byval(%struct.tMPI_Thread_key_t) align 8 @id_key)
  %.not = icmp eq ptr %8, null
  br i1 %.not, label %13, label %16

13:                                               ; preds = %9
  %14 = load ptr, ptr @TMPI_COMM_WORLD, align 8
  %15 = tail call noundef i32 @_Z10tMPI_ErrorP10tmpi_comm_i(ptr noundef %14, i32 noundef 6)
  br label %.loopexit86

16:                                               ; preds = %9
  %17 = tail call noundef i32 @_Z19tMPI_Comm_seek_rankP10tmpi_comm_P11tmpi_thread(ptr noundef nonnull %8, ptr noundef %12)
  %18 = call noundef ptr @_Z12tMPI_Get_cevP10tmpi_comm_iPi(ptr noundef nonnull %8, i32 noundef %17, ptr noundef nonnull %10)
  %19 = icmp eq i32 %17, %7
  br i1 %19, label %20, label %98

20:                                               ; preds = %16
  %21 = load i32, ptr %8, align 8
  %22 = add nsw i32 %21, -1
  %.not83 = icmp eq ptr %0, null
  br i1 %.not83, label %38, label %23

23:                                               ; preds = %20
  %24 = load i64, ptr %2, align 8
  %25 = sext i32 %1 to i64
  %26 = mul i64 %24, %25
  %27 = load i64, ptr %6, align 8
  %28 = sext i32 %7 to i64
  %29 = getelementptr inbounds i32, ptr %4, i64 %28
  %30 = load i32, ptr %29, align 4
  %31 = sext i32 %30 to i64
  %32 = mul i64 %27, %31
  %33 = getelementptr inbounds i32, ptr %5, i64 %28
  %34 = load i32, ptr %33, align 4
  %35 = sext i32 %34 to i64
  %36 = mul i64 %27, %35
  %37 = getelementptr inbounds i8, ptr %3, i64 %36
  call void @_Z19tMPI_Coll_root_xferP10tmpi_comm_P14tmpi_datatype_S2_mmPvS3_Pi(ptr noundef nonnull %8, ptr noundef nonnull %2, ptr noundef nonnull %6, i64 noundef %26, i64 noundef %32, ptr noundef nonnull %0, ptr noundef %37, ptr noundef nonnull %11)
  %.pre = load i32, ptr %8, align 8
  br label %38

38:                                               ; preds = %23, %20
  %39 = phi i32 [ %.pre, %23 ], [ %21, %20 ]
  %40 = icmp sgt i32 %39, 0
  %41 = sext i32 %7 to i64
  br i1 %40, label %.lr.ph, label %._crit_edge

.lr.ph:                                           ; preds = %38, %.lr.ph
  %indvars.iv = phi i64 [ %indvars.iv.next, %.lr.ph ], [ 0, %38 ]
  %42 = load ptr, ptr %18, align 8
  %43 = getelementptr inbounds %struct.coll_env_thread, ptr %42, i64 %41, i32 8
  %44 = load ptr, ptr %43, align 8
  %45 = getelementptr inbounds i32, ptr %44, i64 %indvars.iv
  store i32 0, ptr %45, align 4
  %indvars.iv.next = add nuw nsw i64 %indvars.iv, 1
  %46 = load i32, ptr %8, align 8
  %47 = sext i32 %46 to i64
  %48 = icmp slt i64 %indvars.iv.next, %47
  br i1 %48, label %.lr.ph, label %._crit_edge, !llvm.loop !8

._crit_edge:                                      ; preds = %.lr.ph, %38
  %49 = load ptr, ptr %18, align 8
  %50 = getelementptr inbounds %struct.coll_env_thread, ptr %49, i64 %41, i32 8
  %51 = load ptr, ptr %50, align 8
  %52 = getelementptr inbounds i32, ptr %51, i64 %41
  store i32 1, ptr %52, align 4
  %53 = icmp sgt i32 %21, 1
  br i1 %53, label %.lr.ph96, label %.loopexit87

.loopexit:                                        ; preds = %94, %.lr.ph96
  %.1.lcssa = phi i32 [ %.094, %.lr.ph96 ], [ %.2, %94 ]
  %54 = icmp sgt i32 %.1.lcssa, 0
  br i1 %54, label %.lr.ph96, label %.loopexit87, !llvm.loop !9

.lr.ph96:                                         ; preds = %._crit_edge, %.loopexit
  %.094 = phi i32 [ %.1.lcssa, %.loopexit ], [ %22, %._crit_edge ]
  %55 = load ptr, ptr %18, align 8
  %56 = getelementptr inbounds %struct.coll_env_thread, ptr %55, i64 %41, i32 7
  %57 = call noundef i32 @_Z15tMPI_Event_waitP12tMPI_Event_t(ptr noundef nonnull %56)
  %58 = load i32, ptr %8, align 8
  %59 = icmp sgt i32 %58, 0
  br i1 %59, label %.lr.ph93, label %.loopexit

.lr.ph93:                                         ; preds = %.lr.ph96, %94
  %60 = phi i32 [ %95, %94 ], [ %58, %.lr.ph96 ]
  %indvars.iv98 = phi i64 [ %indvars.iv.next99, %94 ], [ 0, %.lr.ph96 ]
  %.191 = phi i32 [ %.2, %94 ], [ %.094, %.lr.ph96 ]
  %61 = load ptr, ptr %18, align 8
  %62 = getelementptr inbounds %struct.coll_env_thread, ptr %61, i64 %41
  %63 = getelementptr inbounds i8, ptr %62, i64 296
  %64 = load ptr, ptr %63, align 8
  %65 = getelementptr inbounds i32, ptr %64, i64 %indvars.iv98
  %66 = load i32, ptr %65, align 4
  %.not84 = icmp eq i32 %66, 0
  br i1 %.not84, label %67, label %94

67:                                               ; preds = %.lr.ph93
  %68 = getelementptr inbounds %struct.coll_env_thread, ptr %61, i64 %indvars.iv98
  %69 = load i32, ptr %68, align 8
  %70 = load i32, ptr %10, align 4
  %71 = icmp eq i32 %69, %70
  br i1 %71, label %72, label %94

72:                                               ; preds = %67
  %73 = getelementptr inbounds i8, ptr %62, i64 292
  %74 = load i32, ptr %73, align 4
  %75 = add nsw i32 %74, 1
  store i32 %75, ptr %73, align 4
  %76 = getelementptr inbounds i32, ptr %4, i64 %indvars.iv98
  %77 = load i32, ptr %76, align 4
  %78 = sext i32 %77 to i64
  %79 = load i64, ptr %6, align 8
  %80 = mul i64 %79, %78
  %81 = getelementptr inbounds i32, ptr %5, i64 %indvars.iv98
  %82 = load i32, ptr %81, align 4
  %83 = sext i32 %82 to i64
  %84 = mul i64 %79, %83
  %85 = getelementptr inbounds i8, ptr %3, i64 %84
  %86 = trunc nuw nsw i64 %indvars.iv98 to i32
  call void @_Z14tMPI_Mult_recvP10tmpi_comm_P8coll_enviiiP14tmpi_datatype_mPvPi(ptr noundef nonnull %8, ptr noundef nonnull %18, i32 noundef %86, i32 noundef 0, i32 noundef 3, ptr noundef nonnull %6, i64 noundef %80, ptr noundef %85, ptr noundef nonnull %11)
  %87 = load i32, ptr %11, align 4
  %.not85 = icmp eq i32 %87, 0
  br i1 %.not85, label %88, label %.loopexit86

88:                                               ; preds = %72
  %89 = load ptr, ptr %18, align 8
  %90 = getelementptr inbounds %struct.coll_env_thread, ptr %89, i64 %41, i32 8
  %91 = load ptr, ptr %90, align 8
  %92 = getelementptr inbounds i32, ptr %91, i64 %indvars.iv98
  store i32 1, ptr %92, align 4
  %93 = add nsw i32 %.191, -1
  %.pre101 = load i32, ptr %8, align 8
  br label %94

94:                                               ; preds = %.lr.ph93, %67, %88
  %95 = phi i32 [ %60, %.lr.ph93 ], [ %.pre101, %88 ], [ %60, %67 ]
  %.2 = phi i32 [ %.191, %.lr.ph93 ], [ %93, %88 ], [ %.191, %67 ]
  %indvars.iv.next99 = add nuw nsw i64 %indvars.iv98, 1
  %96 = sext i32 %95 to i64
  %97 = icmp slt i64 %indvars.iv.next99, %96
  br i1 %97, label %.lr.ph93, label %.loopexit, !llvm.loop !10

98:                                               ; preds = %16
  %99 = icmp eq ptr %0, null
  %100 = icmp sgt i32 %1, 0
  %or.cond = and i1 %99, %100
  br i1 %or.cond, label %101, label %103

101:                                              ; preds = %98
  %102 = call noundef i32 @_Z10tMPI_ErrorP10tmpi_comm_i(ptr noundef nonnull %8, i32 noundef 17)
  br label %.loopexit86

103:                                              ; preds = %98
  %104 = sext i32 %1 to i64
  %105 = load i64, ptr %2, align 8
  %106 = mul i64 %105, %104
  %107 = load i32, ptr %10, align 4
  %108 = call noundef i32 @_Z15tMPI_Post_multiP8coll_enviiiP14tmpi_datatype_mPviii(ptr noundef %18, i32 noundef %17, i32 noundef 0, i32 noundef 3, ptr noundef nonnull %2, i64 noundef %106, ptr noundef %0, i32 noundef 1, i32 noundef %107, i32 noundef %7)
  store i32 %108, ptr %11, align 4
  %.not82 = icmp eq i32 %108, 0
  br i1 %.not82, label %109, label %.loopexit86

109:                                              ; preds = %103
  call void @_Z20tMPI_Wait_for_othersP8coll_envi(ptr noundef %18, i32 noundef %17)
  br label %.loopexit87

.loopexit87:                                      ; preds = %.loopexit, %._crit_edge, %109
  %110 = load i32, ptr %11, align 4
  br label %.loopexit86

.loopexit86:                                      ; preds = %72, %103, %.loopexit87, %101, %13
  %.074 = phi i32 [ %110, %.loopexit87 ], [ %102, %101 ], [ %15, %13 ], [ %108, %103 ], [ %87, %72 ]
  ret i32 %.074
}